; ModuleID = '44/915.c'
source_filename = "44/915.c"
target datalayout = "e-m:e-p270:32:32-p271:32:32-p272:64:64-i64:64-f80:128-n8:16:32:64-S128"
target triple = "x86_64-pc-linux-gnu"

@.str = private unnamed_addr constant [3 x i8] c"%d\00", align 1
@.str.1 = private unnamed_addr constant [4 x i8] c"%d\0A\00", align 1

; Function Attrs: noinline nounwind uwtable
define dso_local i32 @fan2(i32 %0) #0 {
  %2 = alloca i32, align 4
  %3 = alloca i32, align 4
  %4 = alloca i32, align 4
  %5 = alloca i32, align 4
  store i32 %0, i32* %2, align 4
  %6 = load i32, i32* %2, align 4
  %7 = srem i32 %6, 10
  store i32 %7, i32* %5, align 4
  %8 = load i32, i32* %2, align 4
  %9 = sdiv i32 %8, 10
  store i32 %9, i32* %4, align 4
  %10 = load i32, i32* %5, align 4
  %11 = mul nsw i32 10, %10
  %12 = load i32, i32* %4, align 4
  %13 = add nsw i32 %11, %12
  store i32 %13, i32* %3, align 4
  %14 = load i32, i32* %3, align 4
  ret i32 %14
}

; Function Attrs: noinline nounwind uwtable
define dso_local i32 @fan3(i32 %0) #0 {
  %2 = alloca i32, align 4
  %3 = alloca i32, align 4
  %4 = alloca i32, align 4
  %5 = alloca i32, align 4
  %6 = alloca i32, align 4
  store i32 %0, i32* %2, align 4
  %7 = load i32, i32* %2, align 4
  %8 = srem i32 %7, 10
  store i32 %8, i32* %4, align 4
  %9 = load i32, i32* %2, align 4
  %10 = load i32, i32* %4, align 4
  %11 = sub nsw i32 %9, %10
  %12 = srem i32 %11, 100
  %13 = sdiv i32 %12, 10
  store i32 %13, i32* %5, align 4
  %14 = load i32, i32* %2, align 4
  %15 = sdiv i32 %14, 100
  store i32 %15, i32* %6, align 4
  %16 = load i32, i32* %4, align 4
  %17 = mul nsw i32 100, %16
  %18 = load i32, i32* %5, align 4
  %19 = mul nsw i32 10, %18
  %20 = add nsw i32 %17, %19
  %21 = load i32, i32* %6, align 4
  %22 = add nsw i32 %20, %21
  store i32 %22, i32* %3, align 4
  %23 = load i32, i32* %3, align 4
  ret i32 %23
}

; Function Attrs: noinline nounwind uwtable
define dso_local i32 @fan4(i32 %0) #0 {
  %2 = alloca i32, align 4
  %3 = alloca i32, align 4
  %4 = alloca i32, align 4
  %5 = alloca i32, align 4
  %6 = alloca i32, align 4
  %7 = alloca i32, align 4
  store i32 %0, i32* %2, align 4
  %8 = load i32, i32* %2, align 4
  %9 = srem i32 %8, 10
  store i32 %9, i32* %4, align 4
  %10 = load i32, i32* %2, align 4
  %11 = load i32, i32* %4, align 4
  %12 = sub nsw i32 %10, %11
  %13 = srem i32 %12, 100
  %14 = sdiv i32 %13, 10
  store i32 %14, i32* %5, align 4
  %15 = load i32, i32* %2, align 4
  %16 = load i32, i32* %4, align 4
  %17 = sub nsw i32 %15, %16
  %18 = load i32, i32* %5, align 4
  %19 = mul nsw i32 10, %18
  %20 = sub nsw i32 %17, %19
  %21 = srem i32 %20, 1000
  %22 = sdiv i32 %21, 100
  store i32 %22, i32* %6, align 4
  %23 = load i32, i32* %2, align 4
  %24 = sdiv i32 %23, 1000
  store i32 %24, i32* %7, align 4
  %25 = load i32, i32* %4, align 4
  %26 = mul nsw i32 1000, %25
  %27 = load i32, i32* %5, align 4
  %28 = mul nsw i32 100, %27
  %29 = add nsw i32 %26, %28
  %30 = load i32, i32* %6, align 4
  %31 = mul nsw i32 10, %30
  %32 = add nsw i32 %29, %31
  %33 = load i32, i32* %7, align 4
  %34 = add nsw i32 %32, %33
  store i32 %34, i32* %3, align 4
  %35 = load i32, i32* %3, align 4
  ret i32 %35
}

; Function Attrs: noinline nounwind uwtable
define dso_local i32 @fan5(i32 %0) #0 {
  %2 = alloca i32, align 4
  %3 = alloca i32, align 4
  %4 = alloca i32, align 4
  %5 = alloca i32, align 4
  %6 = alloca i32, align 4
  %7 = alloca i32, align 4
  %8 = alloca i32, align 4
  store i32 %0, i32* %2, align 4
  %9 = load i32, i32* %2, align 4
  %10 = srem i32 %9, 10
  store i32 %10, i32* %4, align 4
  %11 = load i32, i32* %2, align 4
  %12 = load i32, i32* %4, align 4
  %13 = sub nsw i32 %11, %12
  %14 = srem i32 %13, 100
  %15 = sdiv i32 %14, 10
  store i32 %15, i32* %5, align 4
  %16 = load i32, i32* %2, align 4
  %17 = load i32, i32* %4, align 4
  %18 = sub nsw i32 %16, %17
  %19 = load i32, i32* %5, align 4
  %20 = mul nsw i32 10, %19
  %21 = sub nsw i32 %18, %20
  %22 = srem i32 %21, 1000
  %23 = sdiv i32 %22, 100
  store i32 %23, i32* %6, align 4
  %24 = load i32, i32* %2, align 4
  %25 = load i32, i32* %4, align 4
  %26 = sub nsw i32 %24, %25
  %27 = load i32, i32* %5, align 4
  %28 = mul nsw i32 10, %27
  %29 = sub nsw i32 %26, %28
  %30 = load i32, i32* %6, align 4
  %31 = mul nsw i32 100, %30
  %32 = sub nsw i32 %29, %31
  %33 = srem i32 %32, 10000
  %34 = sdiv i32 %33, 1000
  store i32 %34, i32* %7, align 4
  %35 = load i32, i32* %2, align 4
  %36 = sdiv i32 %35, 10000
  store i32 %36, i32* %8, align 4
  %37 = load i32, i32* %4, align 4
  %38 = mul nsw i32 10000, %37
  %39 = load i32, i32* %5, align 4
  %40 = mul nsw i32 1000, %39
  %41 = add nsw i32 %38, %40
  %42 = load i32, i32* %6, align 4
  %43 = mul nsw i32 100, %42
  %44 = add nsw i32 %41, %43
  %45 = load i32, i32* %7, align 4
  %46 = mul nsw i32 10, %45
  %47 = add nsw i32 %44, %46
  %48 = load i32, i32* %8, align 4
  %49 = add nsw i32 %47, %48
  store i32 %49, i32* %3, align 4
  %50 = load i32, i32* %3, align 4
  ret i32 %50
}

; Function Attrs: noinline nounwind uwtable
define dso_local void @main() #0 {
  %1 = alloca [6 x i32], align 16
  %2 = alloca [6 x i32], align 16
  %3 = alloca i32, align 4
  store i32 0, i32* %3, align 4
  br label %4

4:                                                ; preds = %12, %0
  %5 = load i32, i32* %3, align 4
  %6 = icmp sle i32 %5, 5
  br i1 %6, label %7, label %15

7:                                                ; preds = %4
  %8 = load i32, i32* %3, align 4
  %9 = sext i32 %8 to i64
  %10 = getelementptr inbounds [6 x i32], [6 x i32]* %1, i64 0, i64 %9
  %11 = call i32 (i8*, ...) @__isoc99_scanf(i8* getelementptr inbounds ([3 x i8], [3 x i8]* @.str, i64 0, i64 0), i32* %10)
  br label %12

12:                                               ; preds = %7
  %13 = load i32, i32* %3, align 4
  %14 = add nsw i32 %13, 1
  store i32 %14, i32* %3, align 4
  br label %4

15:                                               ; preds = %4
  store i32 0, i32* %3, align 4
  br label %16

16:                                               ; preds = %120, %15
  %17 = load i32, i32* %3, align 4
  %18 = icmp sle i32 %17, 5
  br i1 %18, label %19, label %123

19:                                               ; preds = %16
  %20 = load i32, i32* %3, align 4
  %21 = sext i32 %20 to i64
  %22 = getelementptr inbounds [6 x i32], [6 x i32]* %1, i64 0, i64 %21
  %23 = load i32, i32* %22, align 4
  %24 = icmp slt i32 %23, 10
  br i1 %24, label %25, label %39

25:                                               ; preds = %19
  %26 = load i32, i32* %3, align 4
  %27 = sext i32 %26 to i64
  %28 = getelementptr inbounds [6 x i32], [6 x i32]* %1, i64 0, i64 %27
  %29 = load i32, i32* %28, align 4
  %30 = icmp sgt i32 %29, -10
  br i1 %30, label %31, label %39

31:                                               ; preds = %25
  %32 = load i32, i32* %3, align 4
  %33 = sext i32 %32 to i64
  %34 = getelementptr inbounds [6 x i32], [6 x i32]* %1, i64 0, i64 %33
  %35 = load i32, i32* %34, align 4
  %36 = load i32, i32* %3, align 4
  %37 = sext i32 %36 to i64
  %38 = getelementptr inbounds [6 x i32], [6 x i32]* %2, i64 0, i64 %37
  store i32 %35, i32* %38, align 4
  br label %114

39:                                               ; preds = %25, %19
  %40 = load i32, i32* %3, align 4
  %41 = sext i32 %40 to i64
  %42 = getelementptr inbounds [6 x i32], [6 x i32]* %1, i64 0, i64 %41
  %43 = load i32, i32* %42, align 4
  %44 = icmp slt i32 %43, 100
  br i1 %44, label %45, label %60

45:                                               ; preds = %39
  %46 = load i32, i32* %3, align 4
  %47 = sext i32 %46 to i64
  %48 = getelementptr inbounds [6 x i32], [6 x i32]* %1, i64 0, i64 %47
  %49 = load i32, i32* %48, align 4
  %50 = icmp sgt i32 %49, -100
  br i1 %50, label %51, label %60

51:                                               ; preds = %45
  %52 = load i32, i32* %3, align 4
  %53 = sext i32 %52 to i64
  %54 = getelementptr inbounds [6 x i32], [6 x i32]* %1, i64 0, i64 %53
  %55 = load i32, i32* %54, align 4
  %56 = call i32 @fan2(i32 %55)
  %57 = load i32, i32* %3, align 4
  %58 = sext i32 %57 to i64
  %59 = getelementptr inbounds [6 x i32], [6 x i32]* %2, i64 0, i64 %58
  store i32 %56, i32* %59, align 4
  br label %113

60:                                               ; preds = %45, %39
  %61 = load i32, i32* %3, align 4
  %62 = sext i32 %61 to i64
  %63 = getelementptr inbounds [6 x i32], [6 x i32]* %1, i64 0, i64 %62
  %64 = load i32, i32* %63, align 4
  %65 = icmp slt i32 %64, 1000
  br i1 %65, label %66, label %81

66:                                               ; preds = %60
  %67 = load i32, i32* %3, align 4
  %68 = sext i32 %67 to i64
  %69 = getelementptr inbounds [6 x i32], [6 x i32]* %1, i64 0, i64 %68
  %70 = load i32, i32* %69, align 4
  %71 = icmp sgt i32 %70, -1000
  br i1 %71, label %72, label %81

72:                                               ; preds = %66
  %73 = load i32, i32* %3, align 4
  %74 = sext i32 %73 to i64
  %75 = getelementptr inbounds [6 x i32], [6 x i32]* %1, i64 0, i64 %74
  %76 = load i32, i32* %75, align 4
  %77 = call i32 @fan3(i32 %76)
  %78 = load i32, i32* %3, align 4
  %79 = sext i32 %78 to i64
  %80 = getelementptr inbounds [6 x i32], [6 x i32]* %2, i64 0, i64 %79
  store i32 %77, i32* %80, align 4
  br label %112

81:                                               ; preds = %66, %60
  %82 = load i32, i32* %3, align 4
  %83 = sext i32 %82 to i64
  %84 = getelementptr inbounds [6 x i32], [6 x i32]* %1, i64 0, i64 %83
  %85 = load i32, i32* %84, align 4
  %86 = icmp slt i32 %85, 10000
  br i1 %86, label %87, label %102

87:                                               ; preds = %81
  %88 = load i32, i32* %3, align 4
  %89 = sext i32 %88 to i64
  %90 = getelementptr inbounds [6 x i32], [6 x i32]* %1, i64 0, i64 %89
  %91 = load i32, i32* %90, align 4
  %92 = icmp sgt i32 %91, -10000
  br i1 %92, label %93, label %102

93:                                               ; preds = %87
  %94 = load i32, i32* %3, align 4
  %95 = sext i32 %94 to i64
  %96 = getelementptr inbounds [6 x i32], [6 x i32]* %1, i64 0, i64 %95
  %97 = load i32, i32* %96, align 4
  %98 = call i32 @fan4(i32 %97)
  %99 = load i32, i32* %3, align 4
  %100 = sext i32 %99 to i64
  %101 = getelementptr inbounds [6 x i32], [6 x i32]* %2, i64 0, i64 %100
  store i32 %98, i32* %101, align 4
  br label %111

102:                                              ; preds = %87, %81
  %103 = load i32, i32* %3, align 4
  %104 = sext i32 %103 to i64
  %105 = getelementptr inbounds [6 x i32], [6 x i32]* %1, i64 0, i64 %104
  %106 = load i32, i32* %105, align 4
  %107 = call i32 @fan5(i32 %106)
  %108 = load i32, i32* %3, align 4
  %109 = sext i32 %108 to i64
  %110 = getelementptr inbounds [6 x i32], [6 x i32]* %2, i64 0, i64 %109
  store i32 %107, i32* %110, align 4
  br label %111

111:                                              ; preds = %102, %93
  br label %112

112:                                              ; preds = %111, %72
  br label %113

113:                                              ; preds = %112, %51
  br label %114

114:                                              ; preds = %113, %31
  %115 = load i32, i32* %3, align 4
  %116 = sext i32 %115 to i64
  %117 = getelementptr inbounds [6 x i32], [6 x i32]* %2, i64 0, i64 %116
  %118 = load i32, i32* %117, align 4
  %119 = call i32 (i8*, ...) @printf(i8* getelementptr inbounds ([4 x i8], [4 x i8]* @.str.1, i64 0, i64 0), i32 %118)
  br label %120

120:                                              ; preds = %114
  %121 = load i32, i32* %3, align 4
  %122 = add nsw i32 %121, 1
  store i32 %122, i32* %3, align 4
  br label %16

123:                                              ; preds = %16
  ret void
}

declare dso_local i32 @__isoc99_scanf(i8*, ...) #1

declare dso_local i32 @printf(i8*, ...) #1


!llvm.module.flags = !{!0}
!llvm.ident = !{!1}

!0 = !{i32 1, !"wchar_size", i32 4}
!1 = !{!"clang version 10.0.0-4ubuntu1 "}
